((dp1
cnumpy.core.multiarray
scalar
p2
(cnumpy
dtype
p3
(S'S1'
I0
I1
tRp4
(I3
S'|'
NNNI1
I1
I0
tbS'!'
tRp5
g2
(g3
(S'i4'
I0
I1
tRp6
(I3
S'<'
NNNI-1
I-1
I0
tbS'\x01\x00\x00\x00'
tRp7
sg2
(g3
(S'S1'
I0
I1
tRp8
(I3
S'|'
NNNI1
I1
I0
tbS' '
tRp9
g2
(g6
S'\x00\x00\x00\x00'
tRp10
sg2
(g3
(S'S1'
I0
I1
tRp11
(I3
S'|'
NNNI1
I1
I0
tbS'#'
tRp12
g2
(g6
S'\x03\x00\x00\x00'
tRp13
sg2
(g3
(S'S1'
I0
I1
tRp14
(I3
S'|'
NNNI1
I1
I0
tbS'"'
tRp15
g2
(g6
S'\x02\x00\x00\x00'
tRp16
sg2
(g3
(S'S1'
I0
I1
tRp17
(I3
S'|'
NNNI1
I1
I0
tbS'%'
tRp18
g2
(g6
S'\x04\x00\x00\x00'
tRp19
sg2
(g3
(S'S1'
I0
I1
tRp20
(I3
S'|'
NNNI1
I1
I0
tbS"'"
tRp21
g2
(g6
S'\x06\x00\x00\x00'
tRp22
sg2
(g3
(S'S1'
I0
I1
tRp23
(I3
S'|'
NNNI1
I1
I0
tbS'&'
tRp24
g2
(g6
S'\x05\x00\x00\x00'
tRp25
sg2
(g3
(S'S1'
I0
I1
tRp26
(I3
S'|'
NNNI1
I1
I0
tbS')'
tRp27
g2
(g6
S'\x08\x00\x00\x00'
tRp28
sg2
(g3
(S'S1'
I0
I1
tRp29
(I3
S'|'
NNNI1
I1
I0
tbS'('
tRp30
g2
(g6
S'\x07\x00\x00\x00'
tRp31
sg2
(g3
(S'S1'
I0
I1
tRp32
(I3
S'|'
NNNI1
I1
I0
tbS'+'
tRp33
g2
(g6
S'\t\x00\x00\x00'
tRp34
sg2
(g3
(S'S1'
I0
I1
tRp35
(I3
S'|'
NNNI1
I1
I0
tbS'-'
tRp36
g2
(g6
S'\x0b\x00\x00\x00'
tRp37
sg2
(g3
(S'S1'
I0
I1
tRp38
(I3
S'|'
NNNI1
I1
I0
tbS','
tRp39
g2
(g6
S'\n\x00\x00\x00'
tRp40
sg2
(g3
(S'S1'
I0
I1
tRp41
(I3
S'|'
NNNI1
I1
I0
tbS'/'
tRp42
g2
(g6
S'\r\x00\x00\x00'
tRp43
sg2
(g3
(S'S1'
I0
I1
tRp44
(I3
S'|'
NNNI1
I1
I0
tbS'.'
tRp45
g2
(g6
S'\x0c\x00\x00\x00'
tRp46
sg2
(g3
(S'S1'
I0
I1
tRp47
(I3
S'|'
NNNI1
I1
I0
tbS'1'
tRp48
g2
(g6
S'\x0f\x00\x00\x00'
tRp49
sg2
(g3
(S'S1'
I0
I1
tRp50
(I3
S'|'
NNNI1
I1
I0
tbS'0'
tRp51
g2
(g6
S'\x0e\x00\x00\x00'
tRp52
sg2
(g3
(S'S1'
I0
I1
tRp53
(I3
S'|'
NNNI1
I1
I0
tbS'3'
tRp54
g2
(g6
S'\x11\x00\x00\x00'
tRp55
sg2
(g3
(S'S1'
I0
I1
tRp56
(I3
S'|'
NNNI1
I1
I0
tbS'2'
tRp57
g2
(g6
S'\x10\x00\x00\x00'
tRp58
sg2
(g3
(S'S1'
I0
I1
tRp59
(I3
S'|'
NNNI1
I1
I0
tbS'5'
tRp60
g2
(g6
S'\x13\x00\x00\x00'
tRp61
sg2
(g3
(S'S1'
I0
I1
tRp62
(I3
S'|'
NNNI1
I1
I0
tbS'4'
tRp63
g2
(g6
S'\x12\x00\x00\x00'
tRp64
sg2
(g3
(S'S1'
I0
I1
tRp65
(I3
S'|'
NNNI1
I1
I0
tbS'7'
tRp66
g2
(g6
S'\x15\x00\x00\x00'
tRp67
sg2
(g3
(S'S1'
I0
I1
tRp68
(I3
S'|'
NNNI1
I1
I0
tbS'6'
tRp69
g2
(g6
S'\x14\x00\x00\x00'
tRp70
sg2
(g3
(S'S1'
I0
I1
tRp71
(I3
S'|'
NNNI1
I1
I0
tbS'9'
tRp72
g2
(g6
S'\x17\x00\x00\x00'
tRp73
sg2
(g3
(S'S1'
I0
I1
tRp74
(I3
S'|'
NNNI1
I1
I0
tbS'8'
tRp75
g2
(g6
S'\x16\x00\x00\x00'
tRp76
sg2
(g3
(S'S1'
I0
I1
tRp77
(I3
S'|'
NNNI1
I1
I0
tbS';'
tRp78
g2
(g6
S'\x19\x00\x00\x00'
tRp79
sg2
(g3
(S'S1'
I0
I1
tRp80
(I3
S'|'
NNNI1
I1
I0
tbS':'
tRp81
g2
(g6
S'\x18\x00\x00\x00'
tRp82
sg2
(g3
(S'S1'
I0
I1
tRp83
(I3
S'|'
NNNI1
I1
I0
tbS'?'
tRp84
g2
(g6
S'\x1a\x00\x00\x00'
tRp85
sg2
(g3
(S'S1'
I0
I1
tRp86
(I3
S'|'
NNNI1
I1
I0
tbS'A'
tRp87
g2
(g6
S'\x1b\x00\x00\x00'
tRp88
sg2
(g3
(S'S1'
I0
I1
tRp89
(I3
S'|'
NNNI1
I1
I0
tbS'C'
tRp90
g2
(g6
S'\x1d\x00\x00\x00'
tRp91
sg2
(g3
(S'S1'
I0
I1
tRp92
(I3
S'|'
NNNI1
I1
I0
tbS'B'
tRp93
g2
(g6
S'\x1c\x00\x00\x00'
tRp94
sg2
(g3
(S'S1'
I0
I1
tRp95
(I3
S'|'
NNNI1
I1
I0
tbS'E'
tRp96
g2
(g6
S'\x1f\x00\x00\x00'
tRp97
sg2
(g3
(S'S1'
I0
I1
tRp98
(I3
S'|'
NNNI1
I1
I0
tbS'D'
tRp99
g2
(g6
S'\x1e\x00\x00\x00'
tRp100
sg2
(g3
(S'S1'
I0
I1
tRp101
(I3
S'|'
NNNI1
I1
I0
tbS'G'
tRp102
g2
(g6
S'!\x00\x00\x00'
tRp103
sg2
(g3
(S'S1'
I0
I1
tRp104
(I3
S'|'
NNNI1
I1
I0
tbS'F'
tRp105
g2
(g6
S' \x00\x00\x00'
tRp106
sg2
(g3
(S'S1'
I0
I1
tRp107
(I3
S'|'
NNNI1
I1
I0
tbS'I'
tRp108
g2
(g6
S'#\x00\x00\x00'
tRp109
sg2
(g3
(S'S1'
I0
I1
tRp110
(I3
S'|'
NNNI1
I1
I0
tbS'H'
tRp111
g2
(g6
S'"\x00\x00\x00'
tRp112
sg2
(g3
(S'S1'
I0
I1
tRp113
(I3
S'|'
NNNI1
I1
I0
tbS'K'
tRp114
g2
(g6
S'%\x00\x00\x00'
tRp115
sg2
(g3
(S'S1'
I0
I1
tRp116
(I3
S'|'
NNNI1
I1
I0
tbS'J'
tRp117
g2
(g6
S'$\x00\x00\x00'
tRp118
sg2
(g3
(S'S1'
I0
I1
tRp119
(I3
S'|'
NNNI1
I1
I0
tbS'M'
tRp120
g2
(g6
S"'\x00\x00\x00"
tRp121
sg2
(g3
(S'S1'
I0
I1
tRp122
(I3
S'|'
NNNI1
I1
I0
tbS'L'
tRp123
g2
(g6
S'&\x00\x00\x00'
tRp124
sg2
(g3
(S'S1'
I0
I1
tRp125
(I3
S'|'
NNNI1
I1
I0
tbS'O'
tRp126
g2
(g6
S')\x00\x00\x00'
tRp127
sg2
(g3
(S'S1'
I0
I1
tRp128
(I3
S'|'
NNNI1
I1
I0
tbS'N'
tRp129
g2
(g6
S'(\x00\x00\x00'
tRp130
sg2
(g3
(S'S1'
I0
I1
tRp131
(I3
S'|'
NNNI1
I1
I0
tbS'Q'
tRp132
g2
(g6
S'+\x00\x00\x00'
tRp133
sg2
(g3
(S'S1'
I0
I1
tRp134
(I3
S'|'
NNNI1
I1
I0
tbS'P'
tRp135
g2
(g6
S'*\x00\x00\x00'
tRp136
sg2
(g3
(S'S1'
I0
I1
tRp137
(I3
S'|'
NNNI1
I1
I0
tbS'S'
tRp138
g2
(g6
S'-\x00\x00\x00'
tRp139
sg2
(g3
(S'S1'
I0
I1
tRp140
(I3
S'|'
NNNI1
I1
I0
tbS'R'
tRp141
g2
(g6
S',\x00\x00\x00'
tRp142
sg2
(g3
(S'S1'
I0
I1
tRp143
(I3
S'|'
NNNI1
I1
I0
tbS'U'
tRp144
g2
(g6
S'/\x00\x00\x00'
tRp145
sg2
(g3
(S'S1'
I0
I1
tRp146
(I3
S'|'
NNNI1
I1
I0
tbS'T'
tRp147
g2
(g6
S'.\x00\x00\x00'
tRp148
sg2
(g3
(S'S1'
I0
I1
tRp149
(I3
S'|'
NNNI1
I1
I0
tbS'W'
tRp150
g2
(g6
S'1\x00\x00\x00'
tRp151
sg2
(g3
(S'S1'
I0
I1
tRp152
(I3
S'|'
NNNI1
I1
I0
tbS'V'
tRp153
g2
(g6
S'0\x00\x00\x00'
tRp154
sg2
(g3
(S'S1'
I0
I1
tRp155
(I3
S'|'
NNNI1
I1
I0
tbS'Y'
tRp156
g2
(g6
S'3\x00\x00\x00'
tRp157
sg2
(g3
(S'S1'
I0
I1
tRp158
(I3
S'|'
NNNI1
I1
I0
tbS'X'
tRp159
g2
(g6
S'2\x00\x00\x00'
tRp160
sg2
(g3
(S'S1'
I0
I1
tRp161
(I3
S'|'
NNNI1
I1
I0
tbS'['
tRp162
g2
(g6
S'5\x00\x00\x00'
tRp163
sg2
(g3
(S'S1'
I0
I1
tRp164
(I3
S'|'
NNNI1
I1
I0
tbS'Z'
tRp165
g2
(g6
S'4\x00\x00\x00'
tRp166
sg2
(g3
(S'S1'
I0
I1
tRp167
(I3
S'|'
NNNI1
I1
I0
tbS']'
tRp168
g2
(g6
S'6\x00\x00\x00'
tRp169
sg2
(g3
(S'S1'
I0
I1
tRp170
(I3
S'|'
NNNI1
I1
I0
tbS'a'
tRp171
g2
(g6
S'7\x00\x00\x00'
tRp172
sg2
(g3
(S'S1'
I0
I1
tRp173
(I3
S'|'
NNNI1
I1
I0
tbS'c'
tRp174
g2
(g6
S'9\x00\x00\x00'
tRp175
sg2
(g3
(S'S1'
I0
I1
tRp176
(I3
S'|'
NNNI1
I1
I0
tbS'b'
tRp177
g2
(g6
S'8\x00\x00\x00'
tRp178
sg2
(g3
(S'S1'
I0
I1
tRp179
(I3
S'|'
NNNI1
I1
I0
tbS'e'
tRp180
g2
(g6
S';\x00\x00\x00'
tRp181
sg2
(g3
(S'S1'
I0
I1
tRp182
(I3
S'|'
NNNI1
I1
I0
tbS'd'
tRp183
g2
(g6
S':\x00\x00\x00'
tRp184
sg2
(g3
(S'S1'
I0
I1
tRp185
(I3
S'|'
NNNI1
I1
I0
tbS'g'
tRp186
g2
(g6
S'=\x00\x00\x00'
tRp187
sg2
(g3
(S'S1'
I0
I1
tRp188
(I3
S'|'
NNNI1
I1
I0
tbS'f'
tRp189
g2
(g6
S'<\x00\x00\x00'
tRp190
sg2
(g3
(S'S1'
I0
I1
tRp191
(I3
S'|'
NNNI1
I1
I0
tbS'i'
tRp192
g2
(g6
S'?\x00\x00\x00'
tRp193
sg2
(g3
(S'S1'
I0
I1
tRp194
(I3
S'|'
NNNI1
I1
I0
tbS'h'
tRp195
g2
(g6
S'>\x00\x00\x00'
tRp196
sg2
(g3
(S'S1'
I0
I1
tRp197
(I3
S'|'
NNNI1
I1
I0
tbS'k'
tRp198
g2
(g6
S'A\x00\x00\x00'
tRp199
sg2
(g3
(S'S1'
I0
I1
tRp200
(I3
S'|'
NNNI1
I1
I0
tbS'j'
tRp201
g2
(g6
S'@\x00\x00\x00'
tRp202
sg2
(g3
(S'S1'
I0
I1
tRp203
(I3
S'|'
NNNI1
I1
I0
tbS'm'
tRp204
g2
(g6
S'C\x00\x00\x00'
tRp205
sg2
(g3
(S'S1'
I0
I1
tRp206
(I3
S'|'
NNNI1
I1
I0
tbS'l'
tRp207
g2
(g6
S'B\x00\x00\x00'
tRp208
sg2
(g3
(S'S1'
I0
I1
tRp209
(I3
S'|'
NNNI1
I1
I0
tbS'o'
tRp210
g2
(g6
S'E\x00\x00\x00'
tRp211
sg2
(g3
(S'S1'
I0
I1
tRp212
(I3
S'|'
NNNI1
I1
I0
tbS'n'
tRp213
g2
(g6
S'D\x00\x00\x00'
tRp214
sg2
(g3
(S'S1'
I0
I1
tRp215
(I3
S'|'
NNNI1
I1
I0
tbS'q'
tRp216
g2
(g6
S'G\x00\x00\x00'
tRp217
sg2
(g3
(S'S1'
I0
I1
tRp218
(I3
S'|'
NNNI1
I1
I0
tbS'p'
tRp219
g2
(g6
S'F\x00\x00\x00'
tRp220
sg2
(g3
(S'S1'
I0
I1
tRp221
(I3
S'|'
NNNI1
I1
I0
tbS's'
tRp222
g2
(g6
S'I\x00\x00\x00'
tRp223
sg2
(g3
(S'S1'
I0
I1
tRp224
(I3
S'|'
NNNI1
I1
I0
tbS'r'
tRp225
g2
(g6
S'H\x00\x00\x00'
tRp226
sg2
(g3
(S'S1'
I0
I1
tRp227
(I3
S'|'
NNNI1
I1
I0
tbS'u'
tRp228
g2
(g6
S'K\x00\x00\x00'
tRp229
sg2
(g3
(S'S1'
I0
I1
tRp230
(I3
S'|'
NNNI1
I1
I0
tbS't'
tRp231
g2
(g6
S'J\x00\x00\x00'
tRp232
sg2
(g3
(S'S1'
I0
I1
tRp233
(I3
S'|'
NNNI1
I1
I0
tbS'w'
tRp234
g2
(g6
S'M\x00\x00\x00'
tRp235
sg2
(g3
(S'S1'
I0
I1
tRp236
(I3
S'|'
NNNI1
I1
I0
tbS'v'
tRp237
g2
(g6
S'L\x00\x00\x00'
tRp238
sg2
(g3
(S'S1'
I0
I1
tRp239
(I3
S'|'
NNNI1
I1
I0
tbS'y'
tRp240
g2
(g6
S'O\x00\x00\x00'
tRp241
sg2
(g3
(S'S1'
I0
I1
tRp242
(I3
S'|'
NNNI1
I1
I0
tbS'x'
tRp243
g2
(g6
S'N\x00\x00\x00'
tRp244
sg2
(g3
(S'S1'
I0
I1
tRp245
(I3
S'|'
NNNI1
I1
I0
tbS'z'
tRp246
g2
(g6
S'P\x00\x00\x00'
tRp247
s(dp248
g2
(g6
S'\x00\x00\x00\x00'
tRp249
g9
sg2
(g6
S'\x01\x00\x00\x00'
tRp250
g5
sg2
(g6
S'\x02\x00\x00\x00'
tRp251
g15
sg2
(g6
S'\x03\x00\x00\x00'
tRp252
g12
sg2
(g6
S'\x04\x00\x00\x00'
tRp253
g18
sg2
(g6
S'\x05\x00\x00\x00'
tRp254
g24
sg2
(g6
S'\x06\x00\x00\x00'
tRp255
g21
sg2
(g6
S'\x07\x00\x00\x00'
tRp256
g30
sg2
(g6
S'\x08\x00\x00\x00'
tRp257
g27
sg2
(g6
S'\t\x00\x00\x00'
tRp258
g33
sg2
(g6
S'\n\x00\x00\x00'
tRp259
g39
sg2
(g6
S'\x0b\x00\x00\x00'
tRp260
g36
sg2
(g6
S'\x0c\x00\x00\x00'
tRp261
g45
sg2
(g6
S'\r\x00\x00\x00'
tRp262
g42
sg2
(g6
S'\x0e\x00\x00\x00'
tRp263
g51
sg2
(g6
S'\x0f\x00\x00\x00'
tRp264
g48
sg2
(g6
S'\x10\x00\x00\x00'
tRp265
g57
sg2
(g6
S'\x11\x00\x00\x00'
tRp266
g54
sg2
(g6
S'\x12\x00\x00\x00'
tRp267
g63
sg2
(g6
S'\x13\x00\x00\x00'
tRp268
g60
sg2
(g6
S'\x14\x00\x00\x00'
tRp269
g69
sg2
(g6
S'\x15\x00\x00\x00'
tRp270
g66
sg2
(g6
S'\x16\x00\x00\x00'
tRp271
g75
sg2
(g6
S'\x17\x00\x00\x00'
tRp272
g72
sg2
(g6
S'\x18\x00\x00\x00'
tRp273
g81
sg2
(g6
S'\x19\x00\x00\x00'
tRp274
g78
sg2
(g6
S'\x1a\x00\x00\x00'
tRp275
g84
sg2
(g6
S'\x1b\x00\x00\x00'
tRp276
g87
sg2
(g6
S'\x1c\x00\x00\x00'
tRp277
g93
sg2
(g6
S'\x1d\x00\x00\x00'
tRp278
g90
sg2
(g6
S'\x1e\x00\x00\x00'
tRp279
g99
sg2
(g6
S'\x1f\x00\x00\x00'
tRp280
g96
sg2
(g6
S' \x00\x00\x00'
tRp281
g105
sg2
(g6
S'!\x00\x00\x00'
tRp282
g102
sg2
(g6
S'"\x00\x00\x00'
tRp283
g111
sg2
(g6
S'#\x00\x00\x00'
tRp284
g108
sg2
(g6
S'$\x00\x00\x00'
tRp285
g117
sg2
(g6
S'%\x00\x00\x00'
tRp286
g114
sg2
(g6
S'&\x00\x00\x00'
tRp287
g123
sg2
(g6
S"'\x00\x00\x00"
tRp288
g120
sg2
(g6
S'(\x00\x00\x00'
tRp289
g129
sg2
(g6
S')\x00\x00\x00'
tRp290
g126
sg2
(g6
S'*\x00\x00\x00'
tRp291
g135
sg2
(g6
S'+\x00\x00\x00'
tRp292
g132
sg2
(g6
S',\x00\x00\x00'
tRp293
g141
sg2
(g6
S'-\x00\x00\x00'
tRp294
g138
sg2
(g6
S'.\x00\x00\x00'
tRp295
g147
sg2
(g6
S'/\x00\x00\x00'
tRp296
g144
sg2
(g6
S'0\x00\x00\x00'
tRp297
g153
sg2
(g6
S'1\x00\x00\x00'
tRp298
g150
sg2
(g6
S'2\x00\x00\x00'
tRp299
g159
sg2
(g6
S'3\x00\x00\x00'
tRp300
g156
sg2
(g6
S'4\x00\x00\x00'
tRp301
g165
sg2
(g6
S'5\x00\x00\x00'
tRp302
g162
sg2
(g6
S'6\x00\x00\x00'
tRp303
g168
sg2
(g6
S'7\x00\x00\x00'
tRp304
g171
sg2
(g6
S'8\x00\x00\x00'
tRp305
g177
sg2
(g6
S'9\x00\x00\x00'
tRp306
g174
sg2
(g6
S':\x00\x00\x00'
tRp307
g183
sg2
(g6
S';\x00\x00\x00'
tRp308
g180
sg2
(g6
S'<\x00\x00\x00'
tRp309
g189
sg2
(g6
S'=\x00\x00\x00'
tRp310
g186
sg2
(g6
S'>\x00\x00\x00'
tRp311
g195
sg2
(g6
S'?\x00\x00\x00'
tRp312
g192
sg2
(g6
S'@\x00\x00\x00'
tRp313
g201
sg2
(g6
S'A\x00\x00\x00'
tRp314
g198
sg2
(g6
S'B\x00\x00\x00'
tRp315
g207
sg2
(g6
S'C\x00\x00\x00'
tRp316
g204
sg2
(g6
S'D\x00\x00\x00'
tRp317
g213
sg2
(g6
S'E\x00\x00\x00'
tRp318
g210
sg2
(g6
S'F\x00\x00\x00'
tRp319
g219
sg2
(g6
S'G\x00\x00\x00'
tRp320
g216
sg2
(g6
S'H\x00\x00\x00'
tRp321
g225
sg2
(g6
S'I\x00\x00\x00'
tRp322
g222
sg2
(g6
S'J\x00\x00\x00'
tRp323
g231
sg2
(g6
S'K\x00\x00\x00'
tRp324
g228
sg2
(g6
S'L\x00\x00\x00'
tRp325
g237
sg2
(g6
S'M\x00\x00\x00'
tRp326
g234
sg2
(g6
S'N\x00\x00\x00'
tRp327
g243
sg2
(g6
S'O\x00\x00\x00'
tRp328
g240
sg2
(g6
S'P\x00\x00\x00'
tRp329
g246
st.